target datalayout = "e-m:e-p270:32:32-p271:32:32-p272:64:64-i64:64-i128:128-f80:128-n8:16:32:64-S128"
target triple = "x86_64-pc-linux-gnu"

%"class.absl::lts_20240722::AnyInvocable" = type { %"class.absl::lts_20240722::internal_any_invocable::Impl" }
%"class.absl::lts_20240722::internal_any_invocable::Impl" = type { %"class.absl::lts_20240722::internal_any_invocable::CoreImpl" }
%"class.absl::lts_20240722::internal_any_invocable::CoreImpl" = type { %"union.absl::lts_20240722::internal_any_invocable::TypeErasedState", ptr, ptr }
%"union.absl::lts_20240722::internal_any_invocable::TypeErasedState" = type { %struct.anon }
%struct.anon = type { ptr, i64 }
%class.anon = type { ptr }

; Function Attrs: mustprogress nounwind uwtable
define internal void @"_ZN4absl12lts_2024072222internal_any_invocable8CoreImplILb0EvJNS0_6StatusEEE22InitializeLocalManagerIZN17grpc_event_engine12experimental27GrpcClosureToStatusCallbackEP12grpc_closureE3$_0vEEvv"(ptr noundef nonnull align 16 dereferenceable(32) %0) #8 align 2 {
  %2 = alloca ptr, align 8
  store ptr %0, ptr %2, align 8, !tbaa !85
  %3 = load ptr, ptr %2, align 8
  %4 = getelementptr inbounds nuw %"class.absl::lts_20240722::internal_any_invocable::CoreImpl", ptr %3, i32 0, i32 1
  store ptr @_ZN4absl12lts_2024072222internal_any_invocable19LocalManagerTrivialENS1_14FunctionToCallEPNS1_15TypeErasedStateES4_, ptr %4, align 16, !tbaa !94
  ret void
}

; Function Attrs: mustprogress uwtable
define internal void @"_ZN4absl12lts_2024072222internal_any_invocable8CoreImplILb0EvJNS0_6StatusEEE17InitializeStorageIRZN17grpc_event_engine12experimental27GrpcClosureToStatusCallbackEP12grpc_closureE3$_0JSA_EvEEvDpOT0_"(ptr noundef nonnull align 16 dereferenceable(32) %0, ptr noundef nonnull align 8 dereferenceable(8) %1) #4 align 2 {
  %3 = alloca ptr, align 8
  %4 = alloca ptr, align 8
  store ptr %0, ptr %3, align 8, !tbaa !85
  store ptr %1, ptr %4, align 8, !tbaa !40
  %5 = load ptr, ptr %3, align 8
  %6 = getelementptr inbounds nuw %"class.absl::lts_20240722::internal_any_invocable::CoreImpl", ptr %5, i32 0, i32 0
  %7 = load ptr, ptr %4, align 8, !tbaa !40
  call void @llvm.memcpy.p0.p0.i64(ptr align 8 %6, ptr align 8 %7, i64 8, i1 false), !tbaa.struct !89
  %8 = getelementptr inbounds nuw %"class.absl::lts_20240722::internal_any_invocable::CoreImpl", ptr %5, i32 0, i32 2
  store ptr @"_ZN4absl12lts_2024072222internal_any_invocable12LocalInvokerILb0EvRZN17grpc_event_engine12experimental27GrpcClosureToStatusCallbackEP12grpc_closureE3$_0JNS0_6StatusEEEET0_PNS1_15TypeErasedStateEDpNS1_18ForwardedParameterIT2_E4typeE", ptr %8, align 8, !tbaa !90
  call void @"_ZN4absl12lts_2024072222internal_any_invocable8CoreImplILb0EvJNS0_6StatusEEE22InitializeLocalManagerIZN17grpc_event_engine12experimental27GrpcClosureToStatusCallbackEP12grpc_closureE3$_0vEEvv"(ptr noundef nonnull align 16 dereferenceable(32) %5)
  ret void
}

; Function Attrs: mustprogress uwtable
define internal void @"_ZN4absl12lts_2024072222internal_any_invocable8CoreImplILb0EvJNS0_6StatusEEE10InitializeILNS4_10TargetTypeE3ERZN17grpc_event_engine12experimental27GrpcClosureToStatusCallbackEP12grpc_closureE3$_0SB_vEEvOT1_"(ptr noundef nonnull align 16 dereferenceable(32) %0, ptr noundef nonnull align 8 dereferenceable(8) %1) #4 align 2 {
  %3 = alloca ptr, align 8
  %4 = alloca ptr, align 8
  store ptr %0, ptr %3, align 8, !tbaa !85
  store ptr %1, ptr %4, align 8, !tbaa !40
  %5 = load ptr, ptr %3, align 8
  %6 = load ptr, ptr %4, align 8, !tbaa !40
  call void @"_ZN4absl12lts_2024072222internal_any_invocable8CoreImplILb0EvJNS0_6StatusEEE17InitializeStorageIRZN17grpc_event_engine12experimental27GrpcClosureToStatusCallbackEP12grpc_closureE3$_0JSA_EvEEvDpOT0_"(ptr noundef nonnull align 16 dereferenceable(32) %5, ptr noundef nonnull align 8 dereferenceable(8) %6)
  ret void
}

; Function Attrs: mustprogress uwtable
define internal void @"_ZN4absl12lts_2024072222internal_any_invocable8CoreImplILb0EvJNS0_6StatusEEEC2IRZN17grpc_event_engine12experimental27GrpcClosureToStatusCallbackEP12grpc_closureE3$_0SA_EENS1_24TypedConversionConstructIT_EEOT0_"(ptr noundef nonnull align 16 dereferenceable(32) %0, ptr noundef nonnull align 8 dereferenceable(8) %1) unnamed_addr #4 align 2 {
  %3 = alloca ptr, align 8
  %4 = alloca ptr, align 8
  %5 = alloca i32, align 4
  store ptr %0, ptr %3, align 8, !tbaa !85
  store ptr %1, ptr %4, align 8, !tbaa !40
  %6 = load ptr, ptr %3, align 8
  call void @llvm.lifetime.start.p0(i64 4, ptr %5) #3
  store i32 3, ptr %5, align 4, !tbaa !87
  %7 = load ptr, ptr %4, align 8, !tbaa !40
  call void @"_ZN4absl12lts_2024072222internal_any_invocable8CoreImplILb0EvJNS0_6StatusEEE10InitializeILNS4_10TargetTypeE3ERZN17grpc_event_engine12experimental27GrpcClosureToStatusCallbackEP12grpc_closureE3$_0SB_vEEvOT1_"(ptr noundef nonnull align 16 dereferenceable(32) %6, ptr noundef nonnull align 8 dereferenceable(8) %7)
  call void @llvm.lifetime.end.p0(i64 4, ptr %5) #3
  ret void
}

; Function Attrs: mustprogress uwtable
define internal void @"_ZN4absl12lts_2024072222internal_any_invocable4ImplIFvNS0_6StatusEEEC2IZN17grpc_event_engine12experimental27GrpcClosureToStatusCallbackEP12grpc_closureE3$_0EENS1_19ConversionConstructEOT_"(ptr noundef nonnull align 16 dereferenceable(32) %0, ptr noundef nonnull align 8 dereferenceable(8) %1) unnamed_addr #4 align 2 {
  %3 = alloca ptr, align 8
  %4 = alloca ptr, align 8
  store ptr %0, ptr %3, align 8, !tbaa !83
  store ptr %1, ptr %4, align 8, !tbaa !40
  %5 = load ptr, ptr %3, align 8
  %6 = load ptr, ptr %4, align 8, !tbaa !40
  call void @"_ZN4absl12lts_2024072222internal_any_invocable8CoreImplILb0EvJNS0_6StatusEEEC2IRZN17grpc_event_engine12experimental27GrpcClosureToStatusCallbackEP12grpc_closureE3$_0SA_EENS1_24TypedConversionConstructIT_EEOT0_"(ptr noundef nonnull align 16 dereferenceable(32) %5, ptr noundef nonnull align 8 dereferenceable(8) %6)
  ret void
}

; Function Attrs: mustprogress uwtable
define internal void @"_ZN4absl12lts_2024072212AnyInvocableIFvNS0_6StatusEEEC2IZN17grpc_event_engine12experimental27GrpcClosureToStatusCallbackEP12grpc_closureE3$_0vEEOT_"(ptr noundef nonnull align 16 dereferenceable(32) %0, ptr noundef nonnull align 8 dereferenceable(8) %1) unnamed_addr #4 align 2 {
  %3 = alloca ptr, align 8
  %4 = alloca ptr, align 8
  store ptr %0, ptr %3, align 8, !tbaa !38
  store ptr %1, ptr %4, align 8, !tbaa !40
  %5 = load ptr, ptr %3, align 8
  %6 = load ptr, ptr %4, align 8, !tbaa !40
  call void @"_ZN4absl12lts_2024072222internal_any_invocable4ImplIFvNS0_6StatusEEEC2IZN17grpc_event_engine12experimental27GrpcClosureToStatusCallbackEP12grpc_closureE3$_0EENS1_19ConversionConstructEOT_"(ptr noundef nonnull align 16 dereferenceable(32) %5, ptr noundef nonnull align 8 dereferenceable(8) %6)
  ret void
}

; Function Attrs: mustprogress uwtable
define void @_ZN17grpc_event_engine12experimental27GrpcClosureToStatusCallbackEP12grpc_closure(ptr dead_on_unwind noalias writable sret(%"class.absl::lts_20240722::AnyInvocable") align 16 %0, ptr noundef %1) #4 {
  %3 = alloca ptr, align 8
  %4 = alloca ptr, align 8
  %5 = alloca %class.anon, align 8
  store ptr %0, ptr %3, align 8
  store ptr %1, ptr %4, align 8, !tbaa !3
  call void @llvm.lifetime.start.p0(i64 8, ptr %5) #3
  %6 = getelementptr inbounds nuw %class.anon, ptr %5, i32 0, i32 0
  %7 = load ptr, ptr %4, align 8, !tbaa !3
  store ptr %7, ptr %6, align 8, !tbaa !36
  call void @"_ZN4absl12lts_2024072212AnyInvocableIFvNS0_6StatusEEEC2IZN17grpc_event_engine12experimental27GrpcClosureToStatusCallbackEP12grpc_closureE3$_0vEEOT_"(ptr noundef nonnull align 16 dereferenceable(32) %0, ptr noundef nonnull align 8 dereferenceable(8) %5)
  call void @llvm.lifetime.end.p0(i64 8, ptr %5) #3
  ret void
}