; Function Attrs: mustprogress nofree norecurse nosync nounwind willreturn memory(argmem: write) uwtable
define void @_ZN17grpc_event_engine12experimental27GrpcClosureToStatusCallbackEP12grpc_closure(ptr dead_on_unwind noalias writable writeonly sret(%"class.absl::lts_20240722::AnyInvocable") align 16 captures(none) initializes((0, 8), (16, 32)) %0, ptr noundef %1) local_unnamed_addr #7 {
  %3 = ptrtoint ptr %1 to i64
  store i64 %3, ptr %0, align 16, !tbaa !38
  %4 = getelementptr inbounds nuw i8, ptr %0, i64 24
  store ptr @"_ZN4absl12lts_2024072222internal_any_invocable12LocalInvokerILb0EvRZN17grpc_event_engine12experimental27GrpcClosureToStatusCallbackEP12grpc_closureE3$_0JNS0_6StatusEEEET0_PNS1_15TypeErasedStateEDpNS1_18ForwardedParameterIT2_E4typeE", ptr %4, align 8, !tbaa !39
  %5 = getelementptr inbounds nuw i8, ptr %0, i64 16
  store ptr @_ZN4absl12lts_2024072222internal_any_invocable19LocalManagerTrivialENS1_14FunctionToCallEPNS1_15TypeErasedStateES4_, ptr %5, align 16, !tbaa !41
  ret void
}